-----BEGIN RSA PRIVATE KEY-----
MIICXQIBAAKBgQDheA4EyJtry360vTudMgUv6VaeXlp+IrecAjFY9zHkzsHsN41c
6NUvVyX2DKNPmobZhbLdjI6yDUfp8hUKH1ogFAdtln8bb0fW8uubLbeidr33FZ+2
jIhfscMC1rWYqzXwCSIWBabmbh6qvrr/nIOTGljiZLfwWWnPTaxemNLMdwIDAQAB
AoGAI8ot136MhUDpHQGIy/wbrK5KbJsnnCwgnygN80RR7DMRv1BWJTBkXr5jrTn2
VnV+AFtjuB1OrV7EUpN12YR+hpq8bFEAhczmPqUvwjukiZr8mp6dd+3P0ry4ty07
AKjA/gxXhEDI98patVd9kQwyIXrrPrNYqkWjTfo4iUiR7uECQQD1t7CQlP7L8coz
WwZ6sbRaH1duV2um0njsCbNZ7QHrrEEpEK37KlH+25FaZ8mtrkofZvtGYEOMXKAR
cj6KjlrxAkEA6udyeWFq7mPqXCMpfuiQ+yv7u3WCW4Q6efGd5AkXAzgci9HnAyXe
5DA7a5Y0rwtInCLPD8o8aFDK/ib9/siN5wJBALvbwWD4mMjhxd53lD+PxzwzxAt3
SLWVKqADVpzE5/f/jR3RQ8LH+0JnKfy9ZuKjYsYZXLjUdjBEzJgqCQizh3ECQFXu
ELxCXMGUH1lRK47XOKIJNu8eT2928YVGU8HlaVuuHRMw19cY9W54DmSO7/rQn+Eu
Apz+GBb45ykNzoBzkSUCQQDvkSZrLirsW7p/WnGlguCx2Avreh9brkX57QqLQecx
SDeUk68TdFzbtmz/38O7OmNrwMSyRZnMuVsb87jdKGnA
-----END RSA PRIVATE KEY-----
Certificate:
    Data:
        Version: 3 (0x2)
        Serial Number: 1 (0x1)
        Signature Algorithm: md5WithRSAEncryption
        Issuer: C=na, ST=none, L=none, O=OpenLinux DEMO ONLY certificate, OU=none, CN=noname.nodomain.nowhere/Email=root@noname.nodomain.nowhere
        Validity
            Not Before: May 21 18:39:16 2001 GMT
            Not After : May 21 18:39:16 2002 GMT
        Subject: C=na, ST=none, L=none, O=OpenLinux DEMO ONLY certificate, OU=none, CN=localhost/Email=root@localhost
        Subject Public Key Info:
            Public Key Algorithm: rsaEncryption
            RSA Public Key: (1024 bit)
                Modulus (1024 bit):
                    00:e1:78:0e:04:c8:9b:6b:cb:7e:b4:bd:3b:9d:32:
                    05:2f:e9:56:9e:5e:5a:7e:22:b7:9c:02:31:58:f7:
                    31:e4:ce:c1:ec:37:8d:5c:e8:d5:2f:57:25:f6:0c:
                    a3:4f:9a:86:d9:85:b2:dd:8c:8e:b2:0d:47:e9:f2:
                    15:0a:1f:5a:20:14:07:6d:96:7f:1b:6f:47:d6:f2:
                    eb:9b:2d:b7:a2:76:bd:f7:15:9f:b6:8c:88:5f:b1:
                    c3:02:d6:b5:98:ab:35:f0:09:22:16:05:a6:e6:6e:
                    1e:aa:be:ba:ff:9c:83:93:1a:58:e2:64:b7:f0:59:
                    69:cf:4d:ac:5e:98:d2:cc:77
                Exponent: 65537 (0x10001)
        X509v3 extensions:
            X509v3 Basic Constraints: 
                CA:FALSE
            Netscape Comment: 
                OpenLinux DEMO ONLY certificate. Please generate a real certificate for production use.
            X509v3 Subject Key Identifier: 
                20:19:33:7F:D3:53:27:82:2C:A0:3A:74:48:B2:A0:32:4E:0F:CB:73
            X509v3 Authority Key Identifier: 
                keyid:6A:CE:34:69:7B:12:63:5B:5B:93:54:F7:FA:B3:E5:9A:A5:B0:27:41
                DirName:/C=na/ST=none/L=none/O=OpenLinux DEMO ONLY certificate/OU=none/CN=noname.nodomain.nowhere/Email=root@noname.nodomain.nowhere
                serial:00

    Signature Algorithm: md5WithRSAEncryption
        86:4b:ee:9b:52:85:f5:39:13:3a:3d:b7:34:4d:87:d9:b6:a2:
        5a:39:f6:ce:46:d3:50:50:48:0b:73:2b:a0:a5:2c:6b:c8:6c:
        21:e7:68:d2:ca:6e:b9:23:97:ae:71:3e:8d:9e:9e:34:24:af:
        61:a5:8f:79:de:36:c8:61:b1:82:ff:fd:98:cf:0f:fc:2b:41:
        e9:d0:8c:c8:90:5b:7d:45:62:f0:b6:84:02:05:a9:e2:8a:2d:
        99:cc:59:db:c4:6c:f7:46:3d:0a:d3:82:27:ec:4e:b9:e3:47:
        e4:04:31:23:f6:0f:47:af:54:4a:b1:c7:93:8e:1a:ce:4d:9f:
        bb:63
-----BEGIN CERTIFICATE-----
MIIEPTCCA6agAwIBAgIBATANBgkqhkiG9w0BAQQFADCBszELMAkGA1UEBhMCbmEx
DTALBgNVBAgTBG5vbmUxDTALBgNVBAcTBG5vbmUxKDAmBgNVBAoTH09wZW5MaW51
eCBERU1PIE9OTFkgY2VydGlmaWNhdGUxDTALBgNVBAsTBG5vbmUxIDAeBgNVBAMT
F25vbmFtZS5ub2RvbWFpbi5ub3doZXJlMSswKQYJKoZIhvcNAQkBFhxyb290QG5v
bmFtZS5ub2RvbWFpbi5ub3doZXJlMB4XDTAxMDUyMTE4MzkxNloXDTAyMDUyMTE4
MzkxNlowgZcxCzAJBgNVBAYTAm5hMQ0wCwYDVQQIEwRub25lMQ0wCwYDVQQHEwRu
b25lMSgwJgYDVQQKEx9PcGVuTGludXggREVNTyBPTkxZIGNlcnRpZmljYXRlMQ0w
CwYDVQQLEwRub25lMRIwEAYDVQQDEwlsb2NhbGhvc3QxHTAbBgkqhkiG9w0BCQEW
DnJvb3RAbG9jYWxob3N0MIGfMA0GCSqGSIb3DQEBAQUAA4GNADCBiQKBgQDheA4E
yJtry360vTudMgUv6VaeXlp+IrecAjFY9zHkzsHsN41c6NUvVyX2DKNPmobZhbLd
jI6yDUfp8hUKH1ogFAdtln8bb0fW8uubLbeidr33FZ+2jIhfscMC1rWYqzXwCSIW
Babmbh6qvrr/nIOTGljiZLfwWWnPTaxemNLMdwIDAQABo4IBeTCCAXUwCQYDVR0T
BAIwADBmBglghkgBhvhCAQ0EWRZXT3BlbkxpbnV4IERFTU8gT05MWSBjZXJ0aWZp
Y2F0ZS4gUGxlYXNlIGdlbmVyYXRlIGEgcmVhbCBjZXJ0aWZpY2F0ZSBmb3IgcHJv
ZHVjdGlvbiB1c2UuMB0GA1UdDgQWBBQgGTN/01MngiygOnRIsqAyTg/LczCB4AYD
VR0jBIHYMIHVgBRqzjRpexJjW1uTVPf6s+WapbAnQaGBuaSBtjCBszELMAkGA1UE
BhMCbmExDTALBgNVBAgTBG5vbmUxDTALBgNVBAcTBG5vbmUxKDAmBgNVBAoTH09w
ZW5MaW51eCBERU1PIE9OTFkgY2VydGlmaWNhdGUxDTALBgNVBAsTBG5vbmUxIDAe
BgNVBAMTF25vbmFtZS5ub2RvbWFpbi5ub3doZXJlMSswKQYJKoZIhvcNAQkBFhxy
b290QG5vbmFtZS5ub2RvbWFpbi5ub3doZXJlggEAMA0GCSqGSIb3DQEBBAUAA4GB
AIZL7ptShfU5Ezo9tzRNh9m2olo59s5G01BQSAtzK6ClLGvIbCHnaNLKbrkjl65x
Po2enjQkr2Glj3neNshhsYL//ZjPD/wrQenQjMiQW31FYvC2hAIFqeKKLZnMWdvE
bPdGPQrTgifsTrnjR+QEMSP2D0evVEqxx5OOGs5Nn7tj
-----END CERTIFICATE-----
